; Function Attrs: mustprogress uwtable
define hidden noundef ptr @_ZN8fpa_util7mk_pinfEjj(ptr nocapture noundef nonnull readonly align 8 dereferenceable(64) %this, i32 noundef %ebits, i32 noundef %sbits) local_unnamed_addr #3 align 2 personality ptr @__gxx_personality_v0 {
invoke.cont:
  %v = alloca %class.scoped_mpf, align 8
  %m_plugin.i = getelementptr inbounds i8, ptr %this, i64 8
  %0 = load ptr, ptr %m_plugin.i, align 8
  %m_fm.i.i = getelementptr inbounds i8, ptr %0, i64 24
  store ptr %m_fm.i.i, ptr %v, align 8
  %m_num.i.i = getelementptr inbounds i8, ptr %v, i64 8
  call void @_ZN3mpfC1Ev(ptr noundef nonnull align 8 dereferenceable(32) %m_num.i.i)
  %1 = load ptr, ptr %m_plugin.i, align 8
  %m_fm.i.i2 = getelementptr inbounds i8, ptr %1, i64 24
  invoke void @_ZN11mpf_manager7mk_pinfEjjR3mpf(ptr noundef nonnull align 8 dereferenceable(840) %m_fm.i.i2, i32 noundef %ebits, i32 noundef %sbits, ptr noundef nonnull align 8 dereferenceable(32) %m_num.i.i)
          to label %invoke.cont5 unwind label %lpad

invoke.cont5:                                     ; preds = %invoke.cont
  %2 = load ptr, ptr %m_plugin.i, align 8
  %m_manager.i.i = getelementptr inbounds i8, ptr %2, i64 8
  %3 = load ptr, ptr %m_manager.i.i, align 8
  %call.i.i6 = invoke noundef ptr @_ZN15fpa_decl_plugin15mk_numeral_declERK3mpf(ptr noundef nonnull align 8 dereferenceable(1008) %2, ptr noundef nonnull align 8 dereferenceable(32) %m_num.i.i)
          to label %call.i.i.noexc unwind label %lpad

call.i.i.noexc:                                   ; preds = %invoke.cont5
  %call.i.i.i7 = invoke noundef ptr @_ZN11ast_manager6mk_appEP9func_decljPKP4expr(ptr noundef nonnull align 8 dereferenceable(976) %3, ptr noundef %call.i.i6, i32 noundef 0, ptr noundef null)
          to label %call.i.i.i.noexc unwind label %lpad

call.i.i.i.noexc:                                 ; preds = %call.i.i.noexc
  %call3.i.i8 = invoke noundef zeroext i1 @_ZN11decl_plugin28log_constant_meaning_preludeEP3app(ptr noundef nonnull align 8 dereferenceable(20) %2, ptr noundef %call.i.i.i7)
          to label %call3.i.i.noexc unwind label %lpad

call3.i.i.noexc:                                  ; preds = %call.i.i.i.noexc
  br i1 %call3.i.i8, label %if.then.i.i, label %invoke.cont8

if.then.i.i:                                      ; preds = %call3.i.i.noexc
  %m_fm.i.i5 = getelementptr inbounds i8, ptr %2, i64 24
  %4 = load ptr, ptr %m_manager.i.i, align 8
  %m_trace_stream.i.i.i = getelementptr inbounds i8, ptr %4, i64 912
  %5 = load ptr, ptr %m_trace_stream.i.i.i, align 8
  %add.ptr.i.i.i = getelementptr inbounds i8, ptr %5, i64 16
  invoke void @_ZN11mpf_manager12display_smt2ERSoRK3mpfb(ptr noundef nonnull align 8 dereferenceable(840) %m_fm.i.i5, ptr noundef nonnull align 8 dereferenceable(8) %add.ptr.i.i.i, ptr noundef nonnull align 8 dereferenceable(32) %m_num.i.i, i1 noundef zeroext false)
          to label %.noexc unwind label %lpad

.noexc:                                           ; preds = %if.then.i.i
  %6 = load ptr, ptr %m_manager.i.i, align 8
  %m_trace_stream.i3.i.i = getelementptr inbounds i8, ptr %6, i64 912
  %7 = load ptr, ptr %m_trace_stream.i3.i.i, align 8
  %add.ptr.i4.i.i = getelementptr inbounds i8, ptr %7, i64 16
  %call8.i.i9 = invoke noundef nonnull align 8 dereferenceable(8) ptr @_ZStlsISt11char_traitsIcEERSt13basic_ostreamIcT_ES5_PKc(ptr noundef nonnull align 8 dereferenceable(8) %add.ptr.i4.i.i, ptr noundef nonnull @.str.8)
          to label %invoke.cont8 unwind label %lpad

invoke.cont8:                                     ; preds = %call3.i.i.noexc, %.noexc
  %8 = load ptr, ptr %v, align 8
  %m_mpz_manager.i.i.i = getelementptr inbounds i8, ptr %8, i64 728
  %9 = load ptr, ptr %m_mpz_manager.i.i.i, align 8
  %significand.i.i.i = getelementptr inbounds i8, ptr %v, i64 16
  invoke void @_ZN11mpz_managerILb0EE3delEPS0_R3mpz(ptr noundef nonnull %9, ptr noundef nonnull align 8 dereferenceable(16) %significand.i.i.i)
          to label %_ZN10scoped_mpfD2Ev.exit unwind label %terminate.lpad.i.i

terminate.lpad.i.i:                               ; preds = %invoke.cont8
  %10 = landingpad { ptr, i32 }
          catch ptr null
  %11 = extractvalue { ptr, i32 } %10, 0
  call void @__clang_call_terminate(ptr %11) #19
  unreachable

_ZN10scoped_mpfD2Ev.exit:                         ; preds = %invoke.cont8
  ret ptr %call.i.i.i7

lpad:                                             ; preds = %.noexc, %if.then.i.i, %call.i.i.i.noexc, %call.i.i.noexc, %invoke.cont5, %invoke.cont
  %12 = landingpad { ptr, i32 }
          cleanup
  call void @_ZN10scoped_mpfD2Ev(ptr noundef nonnull align 8 dereferenceable(40) %v) #18
  resume { ptr, i32 } %12
}